; Function Attrs: nounwind uwtable
define range(i32 -173, 1) i32 @wc_InitDhKey(ptr noundef %0) local_unnamed_addr #1 {
  %2 = icmp eq ptr %0, null
  br i1 %2, label %wc_InitDhKey_ex.exit, label %3

3:                                                ; preds = %1
  %4 = getelementptr inbounds nuw i8, ptr %0, i64 3120
  store ptr null, ptr %4, align 8, !tbaa !3
  %5 = getelementptr inbounds nuw i8, ptr %0, i64 3128
  store i32 0, ptr %5, align 8, !tbaa !11
  %6 = getelementptr inbounds nuw i8, ptr %0, i64 1040
  %7 = getelementptr inbounds nuw i8, ptr %0, i64 2080
  %8 = tail call i32 @sp_init_multi(ptr noundef nonnull %0, ptr noundef nonnull %6, ptr noundef nonnull %7, ptr noundef null, ptr noundef null, ptr noundef null) #14
  %.not.i = icmp eq i32 %8, 0
  br i1 %.not.i, label %9, label %wc_InitDhKey_ex.exit

9:                                                ; preds = %3
  store i32 0, ptr %5, align 8, !tbaa !11
  br label %wc_InitDhKey_ex.exit

wc_InitDhKey_ex.exit:                             ; preds = %1, %3, %9
  %.0.i = phi i32 [ 0, %9 ], [ -173, %1 ], [ -125, %3 ]
  ret i32 %.0.i
}